target datalayout = "e-m:e-p270:32:32-p271:32:32-p272:64:64-i64:64-i128:128-f80:128-n8:16:32:64-S128"
target triple = "x86_64-pc-linux-gnu"

%struct.Hacl_Streaming_MD_state_32_s = type { ptr, ptr, i64 }

@_h0 = internal global [5 x i32] [i32 1732584193, i32 -271733879, i32 -1732584194, i32 271733878, i32 -1009589776], align 16

; Function Attrs: nounwind uwtable
define hidden void @python_hashlib_Hacl_Hash_SHA1_init(ptr noundef %0) #0 {
  %2 = alloca ptr, align 8
  %3 = alloca i32, align 4
  store ptr %0, ptr %2, align 8, !tbaa !3
  br label %4

4:                                                ; preds = %1
  call void @llvm.lifetime.start.p0(i64 4, ptr %3) #8
  store i32 0, ptr %3, align 4, !tbaa !8
  %5 = load i32, ptr %3, align 4, !tbaa !8
  %6 = zext i32 %5 to i64
  %7 = getelementptr [5 x i32], ptr @_h0, i64 0, i64 %6
  %8 = load i32, ptr %7, align 4, !tbaa !8
  %9 = load ptr, ptr %2, align 8, !tbaa !3
  %10 = load i32, ptr %3, align 4, !tbaa !8
  %11 = zext i32 %10 to i64
  %12 = getelementptr i32, ptr %9, i64 %11
  store i32 %8, ptr %12, align 4, !tbaa !8
  %13 = load i32, ptr %3, align 4, !tbaa !8
  %14 = add i32 %13, 1
  store i32 %14, ptr %3, align 4, !tbaa !8
  %15 = load i32, ptr %3, align 4, !tbaa !8
  %16 = zext i32 %15 to i64
  %17 = getelementptr [5 x i32], ptr @_h0, i64 0, i64 %16
  %18 = load i32, ptr %17, align 4, !tbaa !8
  %19 = load ptr, ptr %2, align 8, !tbaa !3
  %20 = load i32, ptr %3, align 4, !tbaa !8
  %21 = zext i32 %20 to i64
  %22 = getelementptr i32, ptr %19, i64 %21
  store i32 %18, ptr %22, align 4, !tbaa !8
  %23 = load i32, ptr %3, align 4, !tbaa !8
  %24 = add i32 %23, 1
  store i32 %24, ptr %3, align 4, !tbaa !8
  %25 = load i32, ptr %3, align 4, !tbaa !8
  %26 = zext i32 %25 to i64
  %27 = getelementptr [5 x i32], ptr @_h0, i64 0, i64 %26
  %28 = load i32, ptr %27, align 4, !tbaa !8
  %29 = load ptr, ptr %2, align 8, !tbaa !3
  %30 = load i32, ptr %3, align 4, !tbaa !8
  %31 = zext i32 %30 to i64
  %32 = getelementptr i32, ptr %29, i64 %31
  store i32 %28, ptr %32, align 4, !tbaa !8
  %33 = load i32, ptr %3, align 4, !tbaa !8
  %34 = add i32 %33, 1
  store i32 %34, ptr %3, align 4, !tbaa !8
  %35 = load i32, ptr %3, align 4, !tbaa !8
  %36 = zext i32 %35 to i64
  %37 = getelementptr [5 x i32], ptr @_h0, i64 0, i64 %36
  %38 = load i32, ptr %37, align 4, !tbaa !8
  %39 = load ptr, ptr %2, align 8, !tbaa !3
  %40 = load i32, ptr %3, align 4, !tbaa !8
  %41 = zext i32 %40 to i64
  %42 = getelementptr i32, ptr %39, i64 %41
  store i32 %38, ptr %42, align 4, !tbaa !8
  %43 = load i32, ptr %3, align 4, !tbaa !8
  %44 = add i32 %43, 1
  store i32 %44, ptr %3, align 4, !tbaa !8
  %45 = load i32, ptr %3, align 4, !tbaa !8
  %46 = zext i32 %45 to i64
  %47 = getelementptr [5 x i32], ptr @_h0, i64 0, i64 %46
  %48 = load i32, ptr %47, align 4, !tbaa !8
  %49 = load ptr, ptr %2, align 8, !tbaa !3
  %50 = load i32, ptr %3, align 4, !tbaa !8
  %51 = zext i32 %50 to i64
  %52 = getelementptr i32, ptr %49, i64 %51
  store i32 %48, ptr %52, align 4, !tbaa !8
  %53 = load i32, ptr %3, align 4, !tbaa !8
  %54 = add i32 %53, 1
  store i32 %54, ptr %3, align 4, !tbaa !8
  call void @llvm.lifetime.end.p0(i64 4, ptr %3) #8
  br label %55

55:                                               ; preds = %4
  ret void
}

; Function Attrs: nounwind uwtable
define hidden void @python_hashlib_Hacl_Hash_SHA1_reset(ptr noundef %0) #0 {
  %2 = alloca ptr, align 8
  %3 = alloca %struct.Hacl_Streaming_MD_state_32_s, align 8
  %4 = alloca ptr, align 8
  %5 = alloca ptr, align 8
  %6 = alloca %struct.Hacl_Streaming_MD_state_32_s, align 8
  store ptr %0, ptr %2, align 8, !tbaa !25
  call void @llvm.lifetime.start.p0(i64 24, ptr %3) #8
  %7 = load ptr, ptr %2, align 8, !tbaa !25
  call void @llvm.memcpy.p0.p0.i64(ptr align 8 %3, ptr align 8 %7, i64 24, i1 false), !tbaa.struct !27
  call void @llvm.lifetime.start.p0(i64 8, ptr %4) #8
  %8 = getelementptr inbounds nuw %struct.Hacl_Streaming_MD_state_32_s, ptr %3, i32 0, i32 1
  %9 = load ptr, ptr %8, align 8, !tbaa !23
  store ptr %9, ptr %4, align 8, !tbaa !10
  call void @llvm.lifetime.start.p0(i64 8, ptr %5) #8
  %10 = getelementptr inbounds nuw %struct.Hacl_Streaming_MD_state_32_s, ptr %3, i32 0, i32 0
  %11 = load ptr, ptr %10, align 8, !tbaa !21
  store ptr %11, ptr %5, align 8, !tbaa !3
  %12 = load ptr, ptr %5, align 8, !tbaa !3
  call void @python_hashlib_Hacl_Hash_SHA1_init(ptr noundef %12)
  call void @llvm.lifetime.start.p0(i64 24, ptr %6) #8
  %13 = getelementptr inbounds nuw %struct.Hacl_Streaming_MD_state_32_s, ptr %6, i32 0, i32 0
  %14 = load ptr, ptr %5, align 8, !tbaa !3
  store ptr %14, ptr %13, align 8, !tbaa !21
  %15 = getelementptr inbounds nuw %struct.Hacl_Streaming_MD_state_32_s, ptr %6, i32 0, i32 1
  %16 = load ptr, ptr %4, align 8, !tbaa !10
  store ptr %16, ptr %15, align 8, !tbaa !23
  %17 = getelementptr inbounds nuw %struct.Hacl_Streaming_MD_state_32_s, ptr %6, i32 0, i32 2
  store i64 0, ptr %17, align 8, !tbaa !24
  %18 = load ptr, ptr %2, align 8, !tbaa !25
  %19 = getelementptr %struct.Hacl_Streaming_MD_state_32_s, ptr %18, i64 0
  call void @llvm.memcpy.p0.p0.i64(ptr align 8 %19, ptr align 8 %6, i64 24, i1 false), !tbaa.struct !27
  call void @llvm.lifetime.end.p0(i64 24, ptr %6) #8
  call void @llvm.lifetime.end.p0(i64 8, ptr %5) #8
  call void @llvm.lifetime.end.p0(i64 8, ptr %4) #8
  call void @llvm.lifetime.end.p0(i64 24, ptr %3) #8
  ret void
}