; Function Attrs: mustprogress nofree norecurse nosync nounwind willreturn memory(write, argmem: readwrite, inaccessiblemem: none) uwtable
define hidden void @python_hashlib_Hacl_Hash_SHA1_reset(ptr noundef captures(none) initializes((16, 24)) %0) local_unnamed_addr #9 {
  %.sroa.03.0.copyload = load ptr, ptr %0, align 8, !tbaa !12
  %.sroa.55.0..sroa_idx = getelementptr inbounds nuw i8, ptr %0, i64 16
  store i32 1732584193, ptr %.sroa.03.0.copyload, align 4, !tbaa !3
  %2 = getelementptr i8, ptr %.sroa.03.0.copyload, i64 4
  store i32 -271733879, ptr %2, align 4, !tbaa !3
  %3 = getelementptr i8, ptr %.sroa.03.0.copyload, i64 8
  store i32 -1732584194, ptr %3, align 4, !tbaa !3
  %4 = getelementptr i8, ptr %.sroa.03.0.copyload, i64 12
  store i32 271733878, ptr %4, align 4, !tbaa !3
  %5 = getelementptr i8, ptr %.sroa.03.0.copyload, i64 16
  store i32 -1009589776, ptr %5, align 4, !tbaa !3
  store i64 0, ptr %.sroa.55.0..sroa_idx, align 8, !tbaa !17
  ret void
}